target datalayout = "e-m:e-p270:32:32-p271:32:32-p272:64:64-i64:64-i128:128-f80:128-n8:16:32:64-S128"
target triple = "x86_64-unknown-linux-gnu"

%"class.std::vector.0" = type { %"struct.std::_Vector_base.1" }
%"struct.std::_Vector_base.1" = type { %"struct.std::_Vector_base<double, std::allocator<double>>::_Vector_impl" }
%"struct.std::_Vector_base<double, std::allocator<double>>::_Vector_impl" = type { %"struct.std::_Vector_base<double, std::allocator<double>>::_Vector_impl_data" }
%"struct.std::_Vector_base<double, std::allocator<double>>::_Vector_impl_data" = type { ptr, ptr, ptr }
%"class.QuantLib::CumulativeBehrensFisher" = type { %"class.std::vector", %"class.std::vector.0", %"class.std::vector.5", %"class.std::vector.0", double, double }
%"class.std::vector" = type { %"struct.std::_Vector_base" }
%"struct.std::_Vector_base" = type { %"struct.std::_Vector_base<int, std::allocator<int>>::_Vector_impl" }
%"struct.std::_Vector_base<int, std::allocator<int>>::_Vector_impl" = type { %"struct.std::_Vector_base<int, std::allocator<int>>::_Vector_impl_data" }
%"struct.std::_Vector_base<int, std::allocator<int>>::_Vector_impl_data" = type { ptr, ptr, ptr }
%"class.std::vector.5" = type { %"struct.std::_Vector_base.6" }
%"struct.std::_Vector_base.6" = type { %"struct.std::_Vector_base<std::vector<double>, std::allocator<std::vector<double>>>::_Vector_impl" }
%"struct.std::_Vector_base<std::vector<double>, std::allocator<std::vector<double>>>::_Vector_impl" = type { %"struct.std::_Vector_base<std::vector<double>, std::allocator<std::vector<double>>>::_Vector_impl_data" }
%"struct.std::_Vector_base<std::vector<double>, std::allocator<std::vector<double>>>::_Vector_impl_data" = type { ptr, ptr, ptr }
%"class.__gnu_cxx::__normal_iterator.15" = type { ptr }
%"class.QuantLib::InverseCumulativeBehrensFisher" = type { double, double, %"class.QuantLib::CumulativeBehrensFisher" }

@_ZN8QuantLib23CumulativeBehrensFisherC1ERKSt6vectorIiSaIiEERKS1_IdSaIdEE = unnamed_addr alias void (ptr, ptr, ptr), ptr @_ZN8QuantLib23CumulativeBehrensFisherC2ERKSt6vectorIiSaIiEERKS1_IdSaIdEE

; Function Attrs: mustprogress nounwind uwtable
define linkonce_odr noundef nonnull align 8 dereferenceable(8) ptr @_ZNK9__gnu_cxx17__normal_iteratorIPKdSt6vectorIdSaIdEEE4baseEv(ptr noundef nonnull align 8 dereferenceable(8) %this) #1 comdat align 2 {
entry:
  %this.addr = alloca ptr, align 8
  store ptr %this, ptr %this.addr, align 8, !tbaa !3
  %this1 = load ptr, ptr %this.addr, align 8
  %_M_current = getelementptr inbounds nuw %"class.__gnu_cxx::__normal_iterator.15", ptr %this1, i32 0, i32 0
  ret ptr %_M_current
}

; Function Attrs: mustprogress nounwind uwtable
define linkonce_odr noundef nonnull align 8 dereferenceable(8) ptr @_ZN9__gnu_cxx17__normal_iteratorIPKdSt6vectorIdSaIdEEEppEv(ptr noundef nonnull align 8 dereferenceable(8) %this) #1 comdat align 2 {
entry:
  %this.addr = alloca ptr, align 8
  store ptr %this, ptr %this.addr, align 8, !tbaa !3
  %this1 = load ptr, ptr %this.addr, align 8
  %_M_current = getelementptr inbounds nuw %"class.__gnu_cxx::__normal_iterator.15", ptr %this1, i32 0, i32 0
  %0 = load ptr, ptr %_M_current, align 8, !tbaa !124
  %incdec.ptr = getelementptr inbounds nuw double, ptr %0, i32 1
  store ptr %incdec.ptr, ptr %_M_current, align 8, !tbaa !124
  ret ptr %this1
}

; Function Attrs: mustprogress nounwind uwtable
define linkonce_odr noundef nonnull align 8 dereferenceable(8) ptr @_ZNK9__gnu_cxx17__normal_iteratorIPKdSt6vectorIdSaIdEEEdeEv(ptr noundef nonnull align 8 dereferenceable(8) %this) #1 comdat align 2 {
entry:
  %this.addr = alloca ptr, align 8
  store ptr %this, ptr %this.addr, align 8, !tbaa !3
  %this1 = load ptr, ptr %this.addr, align 8
  %_M_current = getelementptr inbounds nuw %"class.__gnu_cxx::__normal_iterator.15", ptr %this1, i32 0, i32 0
  %0 = load ptr, ptr %_M_current, align 8, !tbaa !124
  ret ptr %0
}

; Function Attrs: inlinehint mustprogress nounwind uwtable
define linkonce_odr noundef zeroext i1 @_ZN9__gnu_cxxneIPKdSt6vectorIdSaIdEEEEbRKNS_17__normal_iteratorIT_T0_EESB_(ptr noundef nonnull align 8 dereferenceable(8) %__lhs, ptr noundef nonnull align 8 dereferenceable(8) %__rhs) #5 comdat {
entry:
  %__lhs.addr = alloca ptr, align 8
  %__rhs.addr = alloca ptr, align 8
  store ptr %__lhs, ptr %__lhs.addr, align 8, !tbaa !3
  store ptr %__rhs, ptr %__rhs.addr, align 8, !tbaa !3
  %0 = load ptr, ptr %__lhs.addr, align 8, !tbaa !3
  %call = call noundef nonnull align 8 dereferenceable(8) ptr @_ZNK9__gnu_cxx17__normal_iteratorIPKdSt6vectorIdSaIdEEE4baseEv(ptr noundef nonnull align 8 dereferenceable(8) %0) #16
  %1 = load ptr, ptr %call, align 8, !tbaa !3
  %2 = load ptr, ptr %__rhs.addr, align 8, !tbaa !3
  %call1 = call noundef nonnull align 8 dereferenceable(8) ptr @_ZNK9__gnu_cxx17__normal_iteratorIPKdSt6vectorIdSaIdEEE4baseEv(ptr noundef nonnull align 8 dereferenceable(8) %2) #16
  %3 = load ptr, ptr %call1, align 8, !tbaa !3
  %cmp = icmp ne ptr %1, %3
  ret i1 %cmp
}

; Function Attrs: mustprogress nounwind uwtable
define linkonce_odr void @_ZN9__gnu_cxx17__normal_iteratorIPKdSt6vectorIdSaIdEEEC2ERKS2_(ptr noundef nonnull align 8 dereferenceable(8) %this, ptr noundef nonnull align 8 dereferenceable(8) %__i) unnamed_addr #1 comdat align 2 {
entry:
  %this.addr = alloca ptr, align 8
  %__i.addr = alloca ptr, align 8
  store ptr %this, ptr %this.addr, align 8, !tbaa !3
  store ptr %__i, ptr %__i.addr, align 8, !tbaa !3
  %this1 = load ptr, ptr %this.addr, align 8
  %_M_current = getelementptr inbounds nuw %"class.__gnu_cxx::__normal_iterator.15", ptr %this1, i32 0, i32 0
  %0 = load ptr, ptr %__i.addr, align 8, !tbaa !3
  %1 = load ptr, ptr %0, align 8, !tbaa !3
  store ptr %1, ptr %_M_current, align 8, !tbaa !124
  ret void
}

; Function Attrs: inlinehint mustprogress nounwind uwtable
define linkonce_odr noundef double @_ZSt13inner_productIN9__gnu_cxx17__normal_iteratorIPKdSt6vectorIdSaIdEEEES7_dET1_T_S9_T0_S8_(ptr %__first1.coerce, ptr %__last1.coerce, ptr %__first2.coerce, double noundef %__init) #5 comdat {
entry:
  %__first1 = alloca %"class.__gnu_cxx::__normal_iterator.15", align 8
  %__last1 = alloca %"class.__gnu_cxx::__normal_iterator.15", align 8
  %__first2 = alloca %"class.__gnu_cxx::__normal_iterator.15", align 8
  %__init.addr = alloca double, align 8
  %coerce.dive = getelementptr inbounds nuw %"class.__gnu_cxx::__normal_iterator.15", ptr %__first1, i32 0, i32 0
  store ptr %__first1.coerce, ptr %coerce.dive, align 8
  %coerce.dive1 = getelementptr inbounds nuw %"class.__gnu_cxx::__normal_iterator.15", ptr %__last1, i32 0, i32 0
  store ptr %__last1.coerce, ptr %coerce.dive1, align 8
  %coerce.dive2 = getelementptr inbounds nuw %"class.__gnu_cxx::__normal_iterator.15", ptr %__first2, i32 0, i32 0
  store ptr %__first2.coerce, ptr %coerce.dive2, align 8
  store double %__init, ptr %__init.addr, align 8, !tbaa !7
  br label %for.cond

for.cond:                                         ; preds = %for.inc, %entry
  %call = call noundef zeroext i1 @_ZN9__gnu_cxxneIPKdSt6vectorIdSaIdEEEEbRKNS_17__normal_iteratorIT_T0_EESB_(ptr noundef nonnull align 8 dereferenceable(8) %__first1, ptr noundef nonnull align 8 dereferenceable(8) %__last1) #16
  br i1 %call, label %for.body, label %for.end

for.body:                                         ; preds = %for.cond
  %0 = load double, ptr %__init.addr, align 8, !tbaa !7
  %call3 = call noundef nonnull align 8 dereferenceable(8) ptr @_ZNK9__gnu_cxx17__normal_iteratorIPKdSt6vectorIdSaIdEEEdeEv(ptr noundef nonnull align 8 dereferenceable(8) %__first1) #16
  %1 = load double, ptr %call3, align 8, !tbaa !7
  %call4 = call noundef nonnull align 8 dereferenceable(8) ptr @_ZNK9__gnu_cxx17__normal_iteratorIPKdSt6vectorIdSaIdEEEdeEv(ptr noundef nonnull align 8 dereferenceable(8) %__first2) #16
  %2 = load double, ptr %call4, align 8, !tbaa !7
  %3 = call double @llvm.fmuladd.f64(double %1, double %2, double %0)
  store double %3, ptr %__init.addr, align 8, !tbaa !7
  br label %for.inc

for.inc:                                          ; preds = %for.body
  %call5 = call noundef nonnull align 8 dereferenceable(8) ptr @_ZN9__gnu_cxx17__normal_iteratorIPKdSt6vectorIdSaIdEEEppEv(ptr noundef nonnull align 8 dereferenceable(8) %__first1) #16
  %call6 = call noundef nonnull align 8 dereferenceable(8) ptr @_ZN9__gnu_cxx17__normal_iteratorIPKdSt6vectorIdSaIdEEEppEv(ptr noundef nonnull align 8 dereferenceable(8) %__first2) #16
  br label %for.cond, !llvm.loop !59

for.end:                                          ; preds = %for.cond
  %4 = load double, ptr %__init.addr, align 8, !tbaa !7
  ret double %4
}

; Function Attrs: mustprogress nounwind uwtable
define linkonce_odr ptr @_ZNKSt6vectorIdSaIdEE3endEv(ptr noundef nonnull align 8 dereferenceable(24) %this) #1 comdat align 2 {
entry:
  %retval = alloca %"class.__gnu_cxx::__normal_iterator.15", align 8
  %this.addr = alloca ptr, align 8
  store ptr %this, ptr %this.addr, align 8, !tbaa !3
  %this1 = load ptr, ptr %this.addr, align 8
  %_M_impl = getelementptr inbounds nuw %"struct.std::_Vector_base.1", ptr %this1, i32 0, i32 0
  %_M_finish = getelementptr inbounds nuw %"struct.std::_Vector_base<double, std::allocator<double>>::_Vector_impl_data", ptr %_M_impl, i32 0, i32 1
  call void @_ZN9__gnu_cxx17__normal_iteratorIPKdSt6vectorIdSaIdEEEC2ERKS2_(ptr noundef nonnull align 8 dereferenceable(8) %retval, ptr noundef nonnull align 8 dereferenceable(8) %_M_finish) #16
  %coerce.dive = getelementptr inbounds nuw %"class.__gnu_cxx::__normal_iterator.15", ptr %retval, i32 0, i32 0
  %0 = load ptr, ptr %coerce.dive, align 8
  ret ptr %0
}

; Function Attrs: mustprogress nounwind uwtable
define linkonce_odr ptr @_ZNKSt6vectorIdSaIdEE5beginEv(ptr noundef nonnull align 8 dereferenceable(24) %this) #1 comdat align 2 {
entry:
  %retval = alloca %"class.__gnu_cxx::__normal_iterator.15", align 8
  %this.addr = alloca ptr, align 8
  store ptr %this, ptr %this.addr, align 8, !tbaa !3
  %this1 = load ptr, ptr %this.addr, align 8
  %_M_impl = getelementptr inbounds nuw %"struct.std::_Vector_base.1", ptr %this1, i32 0, i32 0
  %_M_start = getelementptr inbounds nuw %"struct.std::_Vector_base<double, std::allocator<double>>::_Vector_impl_data", ptr %_M_impl, i32 0, i32 0
  call void @_ZN9__gnu_cxx17__normal_iteratorIPKdSt6vectorIdSaIdEEEC2ERKS2_(ptr noundef nonnull align 8 dereferenceable(8) %retval, ptr noundef nonnull align 8 dereferenceable(8) %_M_start) #16
  %coerce.dive = getelementptr inbounds nuw %"class.__gnu_cxx::__normal_iterator.15", ptr %retval, i32 0, i32 0
  %0 = load ptr, ptr %coerce.dive, align 8
  ret ptr %0
}

; Function Attrs: mustprogress uwtable
define void @_ZN8QuantLib30InverseCumulativeBehrensFisherC2ERKSt6vectorIiSaIiEERKS1_IdSaIdEEd(ptr noundef nonnull align 8 dereferenceable(128) %this, ptr noundef nonnull align 8 dereferenceable(24) %degreesFreedom, ptr noundef nonnull align 8 dereferenceable(24) %factors, double noundef %accuracy) unnamed_addr #0 align 2 {
entry:
  %this.addr = alloca ptr, align 8
  %degreesFreedom.addr = alloca ptr, align 8
  %factors.addr = alloca ptr, align 8
  %accuracy.addr = alloca double, align 8
  %agg.tmp = alloca %"class.__gnu_cxx::__normal_iterator.15", align 8
  %agg.tmp2 = alloca %"class.__gnu_cxx::__normal_iterator.15", align 8
  %agg.tmp5 = alloca %"class.__gnu_cxx::__normal_iterator.15", align 8
  store ptr %this, ptr %this.addr, align 8, !tbaa !3
  store ptr %degreesFreedom, ptr %degreesFreedom.addr, align 8, !tbaa !3
  store ptr %factors, ptr %factors.addr, align 8, !tbaa !3
  store double %accuracy, ptr %accuracy.addr, align 8, !tbaa !7
  %this1 = load ptr, ptr %this.addr, align 8
  %normSqr_ = getelementptr inbounds nuw %"class.QuantLib::InverseCumulativeBehrensFisher", ptr %this1, i32 0, i32 0
  %0 = load ptr, ptr %factors.addr, align 8, !tbaa !3
  %call = call ptr @_ZNKSt6vectorIdSaIdEE5beginEv(ptr noundef nonnull align 8 dereferenceable(24) %0) #16
  %coerce.dive = getelementptr inbounds nuw %"class.__gnu_cxx::__normal_iterator.15", ptr %agg.tmp, i32 0, i32 0
  store ptr %call, ptr %coerce.dive, align 8
  %1 = load ptr, ptr %factors.addr, align 8, !tbaa !3
  %call3 = call ptr @_ZNKSt6vectorIdSaIdEE3endEv(ptr noundef nonnull align 8 dereferenceable(24) %1) #16
  %coerce.dive4 = getelementptr inbounds nuw %"class.__gnu_cxx::__normal_iterator.15", ptr %agg.tmp2, i32 0, i32 0
  store ptr %call3, ptr %coerce.dive4, align 8
  %2 = load ptr, ptr %factors.addr, align 8, !tbaa !3
  %call6 = call ptr @_ZNKSt6vectorIdSaIdEE5beginEv(ptr noundef nonnull align 8 dereferenceable(24) %2) #16
  %coerce.dive7 = getelementptr inbounds nuw %"class.__gnu_cxx::__normal_iterator.15", ptr %agg.tmp5, i32 0, i32 0
  store ptr %call6, ptr %coerce.dive7, align 8
  %coerce.dive8 = getelementptr inbounds nuw %"class.__gnu_cxx::__normal_iterator.15", ptr %agg.tmp, i32 0, i32 0
  %3 = load ptr, ptr %coerce.dive8, align 8
  %coerce.dive9 = getelementptr inbounds nuw %"class.__gnu_cxx::__normal_iterator.15", ptr %agg.tmp2, i32 0, i32 0
  %4 = load ptr, ptr %coerce.dive9, align 8
  %coerce.dive10 = getelementptr inbounds nuw %"class.__gnu_cxx::__normal_iterator.15", ptr %agg.tmp5, i32 0, i32 0
  %5 = load ptr, ptr %coerce.dive10, align 8
  %call11 = call noundef double @_ZSt13inner_productIN9__gnu_cxx17__normal_iteratorIPKdSt6vectorIdSaIdEEEES7_dET1_T_S9_T0_S8_(ptr %3, ptr %4, ptr %5, double noundef 0.000000e+00)
  store double %call11, ptr %normSqr_, align 8, !tbaa !56
  %accuracy_ = getelementptr inbounds nuw %"class.QuantLib::InverseCumulativeBehrensFisher", ptr %this1, i32 0, i32 1
  %6 = load double, ptr %accuracy.addr, align 8, !tbaa !7
  store double %6, ptr %accuracy_, align 8, !tbaa !58
  %distrib_ = getelementptr inbounds nuw %"class.QuantLib::InverseCumulativeBehrensFisher", ptr %this1, i32 0, i32 2
  %7 = load ptr, ptr %degreesFreedom.addr, align 8, !tbaa !3
  %8 = load ptr, ptr %factors.addr, align 8, !tbaa !3
  call void @_ZN8QuantLib23CumulativeBehrensFisherC1ERKSt6vectorIiSaIiEERKS1_IdSaIdEE(ptr noundef nonnull align 8 dereferenceable(112) %distrib_, ptr noundef nonnull align 8 dereferenceable(24) %7, ptr noundef nonnull align 8 dereferenceable(24) %8)
  ret void
}