; Function Attrs: mustprogress uwtable
define void @_ZN8QuantLib30InverseCumulativeBehrensFisherC2ERKSt6vectorIiSaIiEERKS1_IdSaIdEEd(ptr noundef nonnull align 8 dereferenceable(128) %this, ptr noundef nonnull align 8 dereferenceable(24) %degreesFreedom, ptr noundef nonnull align 8 dereferenceable(24) %factors, double noundef %accuracy) unnamed_addr #0 align 2 {
entry:
  %0 = load ptr, ptr %factors, align 8, !tbaa !11
  %_M_finish.i = getelementptr inbounds nuw i8, ptr %factors, i64 8
  %1 = load ptr, ptr %_M_finish.i, align 8, !tbaa !11
  %cmp.i.not6.i = icmp eq ptr %0, %1
  br i1 %cmp.i.not6.i, label %_ZSt13inner_productIN9__gnu_cxx17__normal_iteratorIPKdSt6vectorIdSaIdEEEES7_dET1_T_S9_T0_S8_.exit, label %for.body.i

for.body.i:                                       ; preds = %entry, %for.body.i
  %__init.addr.09.i = phi double [ %3, %for.body.i ], [ 0.000000e+00, %entry ]
  %__first2.sroa.0.08.i = phi ptr [ %incdec.ptr.i2.i, %for.body.i ], [ %0, %entry ]
  %2 = load double, ptr %__first2.sroa.0.08.i, align 8, !tbaa !16
  %3 = tail call double @llvm.fmuladd.f64(double %2, double %2, double %__init.addr.09.i)
  %incdec.ptr.i2.i = getelementptr i8, ptr %__first2.sroa.0.08.i, i64 8
  %cmp.i.not.i = icmp eq ptr %incdec.ptr.i2.i, %1
  br i1 %cmp.i.not.i, label %_ZSt13inner_productIN9__gnu_cxx17__normal_iteratorIPKdSt6vectorIdSaIdEEEES7_dET1_T_S9_T0_S8_.exit, label %for.body.i, !llvm.loop !65

_ZSt13inner_productIN9__gnu_cxx17__normal_iteratorIPKdSt6vectorIdSaIdEEEES7_dET1_T_S9_T0_S8_.exit: ; preds = %for.body.i, %entry
  %__init.addr.0.lcssa.i = phi double [ 0.000000e+00, %entry ], [ %3, %for.body.i ]
  store double %__init.addr.0.lcssa.i, ptr %this, align 8, !tbaa !66
  %accuracy_ = getelementptr inbounds nuw i8, ptr %this, i64 8
  store double %accuracy, ptr %accuracy_, align 8, !tbaa !68
  %distrib_ = getelementptr inbounds nuw i8, ptr %this, i64 16
  tail call void @_ZN8QuantLib23CumulativeBehrensFisherC1ERKSt6vectorIiSaIiEERKS1_IdSaIdEE(ptr noundef nonnull align 8 dereferenceable(112) %distrib_, ptr noundef nonnull align 8 dereferenceable(24) %degreesFreedom, ptr noundef nonnull align 8 dereferenceable(24) %factors)
  ret void
}